

 Start  Stop   Length Name                   Class
 00000H 0FFE1H 0FFE2H _TEXT                  CODE
 0FFE2H 0FFE2H 00000H C_ETEXT                ENDCODE
 0FFF0H 10025H 00036H NULL                   BEGDATA
 10026H 19E83H 09E5EH _DATA                  DATA
 19E84H 19E91H 0000EH CDATA                  DATA
 19E92H 19E92H 00000H XIB                    DATA
 19E92H 19E92H 00000H XI                     DATA
 19E92H 19E92H 00000H XIE                    DATA
 19E92H 19E92H 00000H XPB                    DATA
 19E92H 19E92H 00000H XP                     DATA
 19E92H 19E92H 00000H XPE                    DATA
 19E92H 19E92H 00000H XCB                    DATA
 19E92H 19E92H 00000H XC                     DATA
 19E92H 19E92H 00000H XCE                    DATA
 19E92H 19E92H 00000H CONST                  CONST
 19E92H 19E99H 00008H HDR                    MSG
 19E9AH 19F6AH 000D1H MSG                    MSG
 19F6BH 19F6CH 00002H PAD                    MSG
 19F6DH 19F6DH 00001H EPAD                   MSG
 19F6EH 19F6EH 00000H XOB                    BSS
 19F6EH 19F6EH 00000H XO                     BSS
 19F6EH 19F6EH 00000H XOE                    BSS
 19F70H 1A5AEH 0063FH C_COMMON               BSS
 1A5B0H 1AFCFH 00A20H _BSS                   BSS
 1AFD0H 1B7CFH 00800H STACK                  STACK

 Origin   Group
 0FFF:0   DGROUP

  Address         Publics by Name

 0FFF:A3DC       activeChara
 0FFF:0C78       ACTIVECHARAX
 0FFF:A3F0       activeCharaY
 0FFF:A27E       Altar
 0000:9706       AMBUSH
 0000:43CA       ANI_BALLOON
 0000:3CED       ANI_FIELDS
 0000:41AB       ANI_ICONZONE
 0000:4239       ANI_MOONGATES
 0000:4268       ANI_MOONS
 0000:40B3       ANI_RAYCAST
 0000:3E08       ANI_SPRITES
 0000:3DCA       ANI_WIND
 0FFF:2F3C       ARMOR_PROT
 0000:16CE       ASKCHARA
 0000:171D       ASKDIR
 0000:1B83       ASKINT
 0000:1621       ASKLETTER
 0000:1B16       ASKY_N
 0000:6CFC       ATTACK_RANGED
 0FFF:0CAA       BASEMENT_FLOOR
 0000:0973       BIG_KARMA_INC
 0000:093F       BIG_SHAKE
 0000:A979       CHECKJINX
 0FFF:2E0C       CLASS_MSK
 0FFF:A3DE       closeCrypt
 0000:33D1       CMDDIR_DOWN
 0000:3571       CMDDIR_LEFT
 0000:36B2       CMDDIR_RIGHT
 0000:325F       CMDDIR_UP
 0000:6E9A       CMD_ATTACK
 0000:4C05       CMD_BOARD
 0000:7A41       CMD_CAST
 0000:4F4F       CMD_DESCEND
 0000:492B       CMD_ENTER
 0000:7FC9       CMD_FIRE
 0000:7F07       CMD_GET
 0000:977E       CMD_HOLEUP
 0000:815A       CMD_IGNITE
 0000:4E1A       CMD_JIMMY
 0000:4E99       CMD_KLIMB
 0000:8193       CMD_LOCATE
 0000:9918       CMD_MIX
 0000:7C47       CMD_NEWORDER
 0000:4D75       CMD_OPEN
 0000:D2C3       CMD_PEER
 0000:7B20       CMD_QUIT
 0000:8266       CMD_READY
 0000:9F67       CMD_SEARCH
 0000:B580       CMD_TALK
 0000:0B1E       CMD_USE
 0000:7CC0       CMD_VOLUME
 0000:8383       CMD_WEAR
 0000:4AE0       CMD_X_IT
 0000:4D0A       CMD_YELL
 0000:5A00       CMD_ZTATS
 0FFF:A2B2       Combat
 0FFF:2FEE       COMBAT_MAPS
 0000:6ACC       COM_CHECKHITABLE
 0000:69D5       COM_DODAMAGE
 0000:6620       COM_GETFIGHTERID
 0000:66B6       COM_MAIN
 0000:0B8E       CONSOLE
 0000:34A1       CRYPTCOLLAPSE
 0FFF:0D9A       CRYPTS
 0000:2DB9       CRYPT_CLOSE
 0000:2D3A       CRYPT_EXIT
 0FFF:A2AC       CurMode
 0FFF:0906       cursor_rate
 0000:01E1       C_01E1
 0000:044C       C_044C
 0000:0487       C_0487
 0000:04C0       C_04C0
 0000:0501       C_0501
 0000:0553       C_0553
 0000:0644       C_058C
 0000:0E1A       C_0A58
 0000:0E4D       C_0A8B
 0000:0E91       C_0ACF
 0000:0EC0       C_0AFE
 0000:1514       C_10FD
 0000:1992       C_1513
 0000:1CFB       C_1814
 0000:1D04       C_181D
 0000:1D16       C_182F
 0000:1D36       C_184F
 0000:1D89       C_18A2
 0000:25B6       C_20C1
 0000:2630       C_213B
 0000:288E       C_2399
 0000:2991       C_249C
 0000:2A0C       C_2517
 0000:2A94       C_259F
 0000:2B19       C_2624
 0000:2BAB       C_26B6
 0000:2E87       C_280A
 0000:2EB6       C_2839
 0000:2F0E       C_2891
 0000:2F66       C_28E9
 0000:2FBE       C_2941
 0000:3016       C_2999
 0000:3081       C_29EF
 0000:30CA       C_2A38
 0000:30EC       C_2A5A
 0000:3123       C_2A91
 0000:31D7       C_2B19
 0000:335E       C_2C25
 0000:34FE       C_2D44
 0000:362E       C_2E4F
 0000:3781       C_2F7E
 0000:37A0       C_2F9D
 0000:3813       C_3010
 0000:3828       C_3025
 0000:3912       C_310F
 0000:39F7       C_31F4
 0000:3D40       C_353D
 0000:3ECF       C_36C7
 0000:3F63       C_376F
 0000:4158       C_3960
 0000:4303       C_3B35
 0000:4351       C_3B83
 0000:4416       C_3C54
 0000:4BB8       C_4206
 0000:4D3F       C_431D
 0000:5075       C_45B5
 0000:5109       C_4649
 0000:5149       C_4689
 0000:5A4F       C_4E94
 0000:5BB3       C_4FF8
 0000:5BF1       C_5036
 0000:5C1D       C_5062
 0000:5D62       C_51A7
 0000:5F1B       C_535B
 0000:5F6F       C_53AF
 0000:6003       C_5443
 0000:60C0       C_5500
 0000:6129       C_5569
 0000:620B       C_564B
 0000:6253       C_568F
 0000:6297       C_56D3
 0000:6439       C_5851
 0000:664F       C_5A04
 0000:693E       C_5D14
 0000:6DDC       C_61D1
 0000:6F78       C_636D
 0000:6FBF       C_63B4
 0000:7014       C_6409
 0000:7033       C_6428
 0000:7052       C_6447
 0000:7071       C_6466
 0000:7C0C       C_6FF9
 0000:7CE1       C_70CE
 0000:7D04       C_70F1
 0000:7D63       C_7150
 0000:7E4A       C_722F
 0000:7F4B       C_7337
 0000:7FB8       C_73B8
 0000:8472       C_7821
 0000:84C0       C_786F
 0000:8526       C_78D1
 0000:857D       C_7918
 0000:85C7       C_7962
 0000:862E       C_79C9
 0000:867A       C_7A15
 0000:8737       C_7AE3
 0000:87D1       C_7B89
 0000:87F7       C_7BAF
 0000:881D       C_7BD5
 0000:8845       C_7BFD
 0000:886D       C_7C25
 0000:88AD       C_7C65
 0000:8998       C_7D50
 0000:89DA       C_7D92
 0000:8A04       C_7DBC
 0000:8A46       C_7DFE
 0000:8AC6       C_7E7E
 0000:8C1F       C_7FD7
 0000:8C45       C_7FFD
 0000:8EC9       C_8214
 0000:8EDD       C_8228
 0000:8F38       C_8283
 0000:903C       C_837A
 0000:93EB       C_8743
 0000:948A       C_87E2
 0000:9590       C_88E8
 0000:95C6       C_891E
 0000:9607       C_895F
 0000:9647       C_899F
 0000:9665       C_89BD
 0000:9683       C_89DB
 0000:96C7       C_8A1F
 0000:9A5B       C_8D4B
 0000:9EF2       C_90C5
 0000:A237       C_93A5
 0000:A2A6       C_9414
 0000:A43C       C_95AA
 0000:A515       C_9683
 0000:A54B       C_96B9
 0000:A5F5       C_9764
 0000:A76C       C_98E4
 0000:A8B7       C_9A41
 0000:A9E1       C_9B6B
 0000:AA1C       C_9BA6
 0000:AA5B       C_9BE5
 0000:AACC       C_9C56
 0000:AB32       C_9CBC
 0000:ADF1       C_9F7B
 0000:AFDB       C_A163
 0000:B0A5       C_A22D
 0000:B2BB       C_A443
 0000:B2F7       C_A47F
 0000:B32C       C_A4B4
 0000:B4FE       C_A686
 0000:B67F       C_A7F2
 0000:B6CF       C_A842
 0000:B7D7       C_A94A
 0000:B8B6       C_AA29
 0000:B995       C_AB08
 0000:BA72       C_ABE5
 0000:BAB0       C_AC23
 0000:BBF7       C_AD6A
 0000:BC73       C_ADEF
 0000:BCC5       C_AE41
 0000:BDBA       C_AF36
 0000:BE39       C_AFB5
 0000:BF6D       C_B0E9
 0000:C0A1       C_B21D
 0000:C0E2       C_B25E
 0000:C120       C_B29C
 0000:C15E       C_B2DA
 0000:C19F       C_B31B
 0000:C1E0       C_B35C
 0000:C232       C_B3AE
 0000:C267       C_B3E3
 0000:C29C       C_B418
 0000:C2FE       C_B47A
 0000:C363       C_B4DF
 0000:C4A0       C_B61C
 0000:C4FB       C_B677
 0000:C5B4       C_B730
 0000:C5F4       C_B770
 0000:C619       C_B795
 0000:C6E7       C_B863
 0000:C7C3       C_B93F
 0000:C836       C_B9B2
 0000:9B17       C_BELL
 0000:9B33       C_BELT
 0000:9C85       C_BLAC
 0000:9CFD       C_BOOK
 0000:D294       C_C403
 0000:D2EB       C_C445
 0000:D2F0       C_C44A
 0000:D2F5       C_C44F
 0000:D2FA       C_C454
 0000:D301       C_C51C
 0000:9D0B       C_CAND
 0000:D9A0       C_CD1D
 0000:DA03       C_CD80
 0000:DB41       C_CEBE
 0000:DE4A       C_D16D
 0000:DEAD       C_D1D0
 0000:DFD5       C_D2F8
 0000:E4B3       C_D7D6
 0000:E6E2       C_DA05
 0000:E71B       C_DA3E
 0000:E756       C_DA79
 0000:E77F       C_DAA2
 0000:E806       C_DB29
 0000:E870       C_DB93
 0000:E8D2       C_DBF5
 0000:EA01       C_DD24
 0000:EB12       C_DE35
 0000:EED9       C_E1FC
 0000:EEFB       C_E21E
 0000:F05B       C_E37E
 0000:F0AF       C_E3D2
 0000:F0E5       C_E408
 0000:F11F       C_E442
 0000:F175       C_E498
 0000:F1A0       C_E4C3
 0000:F278       C_E59B
 0000:F3BC       C_E6DF
 0000:9B25       C_HORN
 0000:9AFB       C_MAND
 0000:9E97       C_MBOW
 0000:9DE1       C_MYAR
 0000:9E3C       C_MYWE
 0000:9B09       C_NIGH
 0000:9C0E       C_ORB1
 0000:9C1C       C_ORB2
 0000:9C2A       C_ORB3
 0000:9C38       C_ORBS
 0000:9BD7       C_RING
 0000:9B4F       C_SKUL
 0000:9D61       C_TELE
 0000:9B9E       C_WAND
 0000:9B41       C_WHEL
 0000:9CCD       C_WHIT
 0000:1288       DEATH_REVIVE
 0000:9194       DNG_MAIN
 0FFF:39AC       DOOR_Y0
 0FFF:39B0       DOOR_Y0P
 0FFF:39B4       DOOR_Y1
 0FFF:39B8       DOOR_Y1P
 0FFF:A40A       DoublePace
 0000:6B48       DRAWBLOW
 0000:11E5       DSPL_GOLD
 0000:10B9       DSPL_STATS
 0FFF:0D7A       DUNGEONS
 0FFF:010E       D_010E
 0FFF:0284       D_0284
 0FFF:0678       D_0434
 0FFF:0C66       D_07F8
 0FFF:0C7A       D_080C
 0FFF:0C7E       D_0810
 0FFF:0C82       D_0814
 0FFF:0C8A       D_081C
 0FFF:0D1E       D_0844
 0FFF:0D4C       D_0864
 0FFF:0DCA       D_08CE
 0FFF:0DCC       D_08D0
 0FFF:0EA6       D_08EC
 0FFF:0EAE       D_08F4
 0FFF:0EB6       D_08FC
 0FFF:0EBE       D_0904
 0FFF:11DC       D_0BDA
 0FFF:11F2       D_0BF0
 0FFF:1200       D_0BFE
 0FFF:1C1C       D_161A
 0FFF:1C22       D_1620
 0FFF:1C32       D_1630
 0FFF:1C56       D_1654
 0FFF:1C58       D_1656
 0FFF:1C66       D_1664
 0FFF:1C68       D_1668
 0FFF:1C6A       D_166A
 0FFF:1C6C       D_166C
 0FFF:2046       D_17FA
 0FFF:2048       D_17FC
 0FFF:204A       D_17FE
 0FFF:2214       D_199A
 0FFF:221E       D_19A4
 0FFF:223A       D_19C0
 0FFF:2AA8       D_1FD8
 0FFF:2B5C       D_208C
 0FFF:2C3E       D_216E
 0FFF:2CC4       D_21F4
 0FFF:2DA0       D_22C8
 0FFF:2EE0       D_2406
 0FFF:2F04       D_242A
 0FFF:304A       D_256E
 0FFF:306A       D_258E
 0FFF:311C       D_261A
 0FFF:329C       D_277E
 0FFF:32C4       D_27A6
 0FFF:340E       D_2904
 0FFF:342A       D_2920
 0FFF:35CA       D_2A7A
 0FFF:35E0       D_2A90
 0FFF:3702       D_2BB2
 0FFF:3824       D_2CD4
 0FFF:3964       D_2D54
 0FFF:39BC       D_2DAC
 0FFF:39C0       D_2DB0
 0FFF:39C4       D_2DB4
 0FFF:39C8       D_2DB8
 0FFF:39CC       D_2DBC
 0FFF:39D0       D_2DC0
 0FFF:39D4       D_2DC4
 0FFF:39D8       D_2DC8
 0FFF:39E4       D_2DD4
 0FFF:39E8       D_2DD8
 0FFF:39EC       D_2DDC
 0FFF:39F0       D_2DE0
 0FFF:39F4       D_2DE4
 0FFF:39F8       D_2DE8
 0FFF:39FC       D_2DEC
 0FFF:39FE       D_2DEE
 0FFF:3A14       D_2E04
 0FFF:3A7E       D_2E6E
 0FFF:3A8E       D_2E7E
 0FFF:3B82       D_2F72
 0FFF:3C82       D_2FF2
 0FFF:4AD0       D_3F0C
 0FFF:4D60       D_4170
 0FFF:4D88       D_4180
 0FFF:4D94       D_4188
 0FFF:4DA0       D_4190
 0FFF:52BE       D_46A2
 0FFF:52CA       D_46AE
 0FFF:52D6       D_46BA
 0FFF:52EE       D_46D2
 0FFF:5310       D_46F2
 0FFF:5320       D_4702
 0FFF:57DA       D_4BAE
 0FFF:57E6       D_4BB8
 0FFF:57F2       D_4BC4
 0FFF:580E       D_4BDC
 0FFF:581E       D_4BEC
 0FFF:5846       D_4BFC
 0FFF:5E02       D_5196
 0FFF:5E2A       D_51A6
 0FFF:5E32       D_51AE
 0FFF:5E3A       D_51B6
 0FFF:5E40       D_51BA
 0FFF:5E46       D_51BE
 0FFF:610C       D_5484
 0FFF:611C       D_5494
 0FFF:6124       D_549C
 0FFF:612C       D_54A4
 0FFF:6134       D_54AC
 0FFF:6142       D_54BA
 0FFF:6150       D_54C8
 0FFF:62FA       D_5672
 0FFF:62FE       D_5676
 0FFF:6302       D_567A
 0FFF:642A       D_5788
 0FFF:6452       D_5798
 0FFF:6468       D_57AC
 0FFF:6BC8       D_5EE8
 0FFF:6BF0       D_5EF8
 0FFF:6BFE       D_5F04
 0FFF:6C0C       D_5F10
 0FFF:6C1A       D_5F1C
 0FFF:6C28       D_5F28
 0FFF:6C36       D_5F34
 0FFF:6C44       D_5F42
 0FFF:709C       D_636C
 0FFF:70C4       D_637C
 0FFF:70D2       D_6386
 0FFF:70E0       D_6390
 0FFF:7E5C       D_6FF0
 0FFF:7E9C       D_7028
 0FFF:99AC       D_8362
 0FFF:A5E2       D_8742
 0FFF:9F80       D_9140
 0FFF:9F81       D_9141
 0FFF:9F82       D_9142
 0FFF:A17A       D_933A
 0FFF:A27A       D_943A
 0FFF:A282       D_9440
 0FFF:A287       D_9445
 0FFF:A288       D_9446
 0FFF:A28A       D_9448
 0FFF:A28C       D_944A
 0FFF:A294       D_9452
 0FFF:A29A       D_9458
 0FFF:A2AE       D_946C
 0FFF:A3E0       D_959C
 0FFF:A3E9       D_95A5
 0FFF:A3F6       D_95B2
 0FFF:A40E       D_95C8
 0FFF:A412       D_95CC
 0FFF:A414       D_95CE
 0FFF:A534       D_96EE
 0FFF:A53A       D_96F4
 0FFF:A544       D_96F8
 0FFF:A545       D_96F9
 0FFF:A5BE       D_9772
 0FFF:2962       D_ARMORS
 0FFF:2A62       D_ASSORTED
 0FFF:2992       D_CLASSES
 0FFF:2908       D_CREA
 0FFF:2A6A       D_INCANTATIONS
 0FFF:2A8A       D_ITEMS
 0FFF:31BA       D_LAAM
 0FFF:29F6       D_LOCATIONS
 0FFF:2A64       D_PRINCIPLES
 0FFF:29B2       D_REAGENTS
 0FFF:31C2       D_SEAM
 0FFF:28F6       D_SEA_CREA
 0FFF:29C2       D_SPELLS
 0FFF:2A52       D_VIRTUES
 0FFF:2940       D_WEAPONS
 0FFF:2972       D_WEA_CODES
 0000:E485       ENC_INN
 0FFF:2EAC       ENEMY_HP
 0000:4784       ENTER_DUNGEON
 0000:F644       ENTER_ORACLE
 0000:F409       ENTER_SHRINE
 0000:47ED       ENTER_TOWNE
 0FFF:A5CB       equip_flags
 0000:4887       EXP_CLEAR_PARTYNPC
 0000:48CC       EXP_ENTER_ABYSS
 0000:4705       EXP_LOAD_DUNGEON
 0000:4A87       EXP_ONFOOT
 0000:4B91       EXP_RESTORE_HORSE
 0000:4765       EXP_SET_DUNGEON
 0FFF:0078       far_psp
 0FFF:A372       Fighters
 0FFF:A3DA       File_DNG
 0FFF:A536       File_MAP
 0FFF:A53C       File_TLK
 0FFF:A53E       File_TLK_2
 0FFF:A540       File_TLK_B
 0FFF:A542       File_TLK_Buff
 0000:9A7D       FIND_REAG
 0000:17D2       FOOD_DEC
 0000:2736       GRA_09
 0000:273B       GRA_10
 0000:2740       GRA_11
 0000:2761       GRA_13
 0000:27B0       Gra_animFlag
 0000:27AB       Gra_animFlow
 0000:2725       GRA_CR
 0000:27B5       GRA_PUTCHAR
 0000:154C       HITCHARA
 0FFF:A3F2       hit_tile
 0FFF:A3F4       hit_x
 0FFF:A3F5       hit_y
 0FFF:A40C       HorseTown
 0FFF:1EE4       HORSE_X
 0FFF:1EE6       HORSE_Y
 0000:0D73       HP_DEC
 0000:0D4B       HP_INC
 0000:1225       ISCHARAALIVE
 0000:1259       ISCHARACONSCIOUS
 0000:6673       ISCOMBATENDED
 0000:0DD9       KARMA_DEC
 0000:0DBA       KARMA_INC
 0FFF:99CE       KEYWORDS
 0FFF:99E0       KEYWORDS_RESPONSE
 0FFF:39DC       LADDER_X0
 0FFF:39E0       LADDER_X1
 0FFF:399C       LDOOR_X0
 0FFF:39A0       LDOOR_X1
 0000:0BD1       LOAD
 0000:45DF       LOAD_TOWNE
 0000:4672       LOAD_TOWNE_1ST
 0000:46A3       LOAD_TOWNE_2ND
 0000:46D4       LOAD_TOWNE_SUB
 0000:0115       low_clean
 0000:0147       low_gra
 0000:0012       low_init
 0FFF:996C       MANTRAS
 0000:2C74       MAP_LEAVING
 0000:188C       MP_DRAIN
 0000:17FD       MP_RECOVER
 0FFF:0036       MSG_DSKERR
 0FFF:005E       MSG_SYSERR
 0FFF:0100       NONE_OWNED
 0FFF:00EE       NO_EFFECT
 0000:63FF       NPC_MESM_OUT
 0000:5F16       NPC_MESM_TOWN
 0000:62D6       NPC_MOVE_OUT
 0000:5E4E       NPC_MOVE_TOWN
 0000:6404       NPC_TURN
 0000:F61E       ORB_CHECK
 0FFF:9F84       Party
 0000:1A08       PARTY_DAMAGE
 0000:2138       PARTY_MAINT
 0FFF:A5CD       patch_tandy
 0FFF:A3E4       pCharset
 0000:D0CC       PER_DUNG
 0000:C873       PER_WORLD
 0FFF:0C68       PKARMAS
 0000:9FFE       POISON
 0000:A61D       PROJ_ATTACK
 0FFF:A296       pShapes
 0000:A03D       RANDOM_ENCOUNTER
 0FFF:2F44       RANGE_WEAP
 0FFF:39A4       RDOOR_X0
 0FFF:39A8       RDOOR_X1
 0000:8211       READY_WEAR_CANT
 0000:D576       RESTORE_CRYPT
 0000:0E73       SAFEMODULO
 0000:0C4D       SAVE
 0FFF:0C92       SECOND_FLOOR
 0FFF:A5D2       seed_0
 0FFF:A5D6       seed_1
 0FFF:A5DA       seed_2
 0FFF:A5DE       seed_3
 0000:0CDA       SHAKEFX
 0FFF:A284       ship_x
 0FFF:A285       ship_y
 0000:E18B       SHP_ARMOR
 0000:ED65       SHP_FOOD
 0000:E2FB       SHP_GUILD
 0000:D5AE       SHP_HAWKWIND
 0000:E92A       SHP_HEALER
 0000:E273       SHP_HORSE
 0000:E5BA       SHP_INN
 0000:EC8C       SHP_PUB
 0000:D782       SHP_REAGENT
 0000:DD62       SHP_WEAPON
 0FFF:0D8A       SHRINES
 0000:F780       SHR_KEYWORDS
 0000:2836       sizzleCharset
 0000:27C4       sizzleShapes
 0000:072C       SKULL_KILL
 0000:9FC7       SLEEP
 0000:0D9B       SLEEP_POISONFX
 0000:2E54       SPAWN_DAEMONS
 0FFF:A5C8       speed_info
 0FFF:A2B0       spell_cnt
 0FFF:A3E8       spell_sta
 0000:7163       SPL_AWAKEN
 0000:71B5       SPL_BLINK
 0000:72A9       SPL_CURE
 0000:72E8       SPL_DISPEL
 0000:747C       SPL_ENERGY
 0000:75C8       SPL_FIREBALL
 0000:75D6       SPL_GATE
 0000:7631       SPL_HEAL
 0000:7673       SPL_ICEBALL
 0000:7681       SPL_JINX
 0000:769A       SPL_KILL
 0000:76A8       SPL_LIGHT
 0000:76CC       SPL_MAGICMISL
 0000:76DA       SPL_NEGATE
 0000:76F3       SPL_OPEN
 0000:7727       SPL_PROTECTION
 0000:7740       SPL_QUICKNESS
 0000:7759       SPL_RESURRECT
 0000:779F       SPL_SLEEP
 0000:77E9       SPL_TREMOR
 0000:7868       SPL_UNDEAD
 0000:78A9       SPL_VIEW
 0000:78BA       SPL_WINDS
 0000:7919       SPL_X_IT
 0000:7934       SPL_Y_UP
 0000:79B8       SPL_Z_DOWN
 0FFF:1EE8       TALK_FILES
 0FFF:1F44       TALK_FILES_2
 0FFF:1F5C       TALK_FILES_B
 0000:F7D4       TALK_ORACLE
 0000:9D19       TEST_ITEM
 0FFF:A410       tile_back
 0FFF:A286       tile_cur
 0FFF:A3E2       tile_east
 0FFF:A27C       tile_forward
 0FFF:A3EE       tile_north
 0FFF:A407       tile_south
 0FFF:A406       tile_west
 0000:B21A       TLK_GIVE
 0000:B123       TLK_HEALTH
 0000:B111       TLK_JOB
 0000:B135       TLK_JOIN
 0000:B0F8       TLK_LOOK
 0000:B0D9       TLK_NAME
 0000:B0BD       TLK_SPECIAL1
 0000:B0CB       TLK_SPECIAL2
 0FFF:A280       Tomb
 0FFF:0CC2       TOWNE_CASTLE_VILLAGE
 0000:6C29       TRYDAMAGE
 0FFF:A3EC       txt_X
 0FFF:A408       txt_Y
 0000:4577       T_CALLBACK
 0000:5B79       U4_ABS
 0000:18C4       U4_GETS
 0000:1061       U4_PUTC
 0000:0FC5       U4_PUTL
 0000:0EFA       U4_PUTS
 0000:5B92       U4_SIGN
 0000:058C       USE_BELT
 0000:0AAE       USE_INCANT
 0000:05B9       USE_ORBS
 0000:0686       USE_RING
 0000:07B8       USE_SKULL
 0000:0311       USE_STONES
 0000:08AB       USE_WAND
 0000:0AE3       USE_WANDCAST
 0000:09D5       USE_WANDMAGIC
 0000:1C58       U_RAND_A
 0000:1C89       u_rand_b
 0FFF:997C       VISIONS
 0FFF:3984       WALL_X0
 0FFF:398A       WALL_X1
 0FFF:3990       WALL_Y0
 0FFF:3996       WALL_Y1
 0FFF:2F2A       WEAP_DAM
 0FFF:A538       WindDir
 0FFF:99BC       WORDS_PASSAGE
 0000:3040       W_BLOCKED
 0000:15C1       W_CANT_T
 0000:15E3       W_DISABLED
 0000:305B       W_DRIFTONLY
 0000:6FA4       W_FAILED
 0000:6BBF       W_MISSED
 0000:1613       W_NONELEFT
 0000:15D2       W_NOTHERE
 0000:159F       W_NO_DRAGON
 0000:15F4       W_ONLYONFOOT
 0000:0D3D       W_PASS
 0000:85B2       W_SAMEEXIT
 0000:1605       W_SLOWPROGRESS
 0000:15B0       W_WHAT
 0000:0D17       XP_INC
 0000:540D       ZTATS_ARMOR
 0000:587C       ZTATS_BROWSE
 0000:5096       ZTATS_CENTERED
 0000:549C       ZTATS_EQUIP
 0000:5552       ZTATS_ITEMS
 0000:57FD       ZTATS_MIXTURES
 0000:5782       ZTATS_REAGENTS
 0000:52F2       ZTATS_WEAP
 0000:F85D       _atol
 0000:24E9       _dalloc
 0000:25A0       _dclose
 0000:2518       _dfree
 0000:253E       _dlseek
 0000:2528       _dopen
 0000:255C       _dread
 0000:2580       _dwrite
 0FFF:9F7E       _edata
 0FFF:AFE0       _end
 0FFF:9E86       _environ
 0FFF:9E62       _errno
 0000:F9B9       _exit
 0000:26F6       _Gra_00
 0000:26FB       _Gra_01
 0000:2700       _Gra_02
 0000:2705       _Gra_03
 0000:2710       _Gra_04
 0000:271B       _Gra_05
 0000:2770       _Gra_16
 0000:2775       _Gra_17
 0000:278C       _Gra_18
 0000:2791       _Gra_19
 0000:279C       _Gra_animSpit
 0000:27A6       _Gra_clrscr
 0000:2720       _Gra_dot
 0000:2766       _Gra_dot_OR
 0000:276B       _Gra_dot_XOR
 0000:27A1       _Gra_init
 0000:264F       _Gra_line
 0000:FA93       _longjmp
 0000:1E05       _main
 0000:FA24       _memcpy
 0000:FA76       _setjmp
 0000:223C       _sound
 0FFF:0946       _SoundFlag
 0000:FAB4       _strcat
 0000:FAE5       _strchr
 0000:FB0F       _strcpy
 0000:FB34       _strlen
 0000:FB4F       _strnicmp
 0000:1BB4       _u_delay
 0000:1CEB       _u_kbflush
 0000:1CAC       _u_kbhit
 0000:1CDB       _u_kbread
 0FFF:9E48       __abrkp
 0FFF:9DF8       __abrktb
 0FFF:9E48       __abrktbe
 0000:9876  Abs  __acrtmsg
 0000:9876  Abs  __acrtused
 0FFF:9E56       __aintdiv
 0000:F8FF       __amsg_exit
 0000:FDFD       __aNldiv
 0000:FEA0       __aNlmul
 0000:FECC       __aNlrem
 0000:FF72       __aNuldiv
 0000:FEA0       __aNulmul
 0000:FFD7       __aNulshr
 0FFF:9DF4       __asizds
 0000:F860       __astart
 0FFF:9DF6       __atopsp
 0000:FBA6       __catox
 0FFF:9E88       __child
 0000:F90A       __cinit
 0000:F8FC       __cintDIV
 0FFF:9E8A       __csigtab
 0000:F9FC       __ctermsub
 0FFF:9E6C       __doserrno
 0FFF:9E6A       __dosvermajor
 0FFF:9E6B       __dosverminor
 0000:F9D0       __exit
 0FFF:9E5A       __fac
 0FFF:9E96       __fpinit
 0000:FDBB       __myalloc
 0000:FC17       __NMSG_TEXT
 0000:FC47       __NMSG_WRITE
 0000:FBFB       __nullcheck
 0FFF:9E6C       __oserr
 0FFF:9E6E       __osfile
 0FFF:9E6A       __osmajor
 0FFF:9E6B       __osminor
 0FFF:9E68       __psp
 0FFF:9E66       __pspadr
 0000:FC70       __setargv
 0000:FD55       __setenvp
 0FFF:9E64       __umaskval
 0FFF:9E82       ___argc
 0FFF:9E84       ___argv

  Address         Publics by Value

 0000:0012       low_init
 0000:0115       low_clean
 0000:0147       low_gra
 0000:01E1       C_01E1
 0000:0311       USE_STONES
 0000:044C       C_044C
 0000:0487       C_0487
 0000:04C0       C_04C0
 0000:0501       C_0501
 0000:0553       C_0553
 0000:058C       USE_BELT
 0000:05B9       USE_ORBS
 0000:0644       C_058C
 0000:0686       USE_RING
 0000:072C       SKULL_KILL
 0000:07B8       USE_SKULL
 0000:08AB       USE_WAND
 0000:093F       BIG_SHAKE
 0000:0973       BIG_KARMA_INC
 0000:09D5       USE_WANDMAGIC
 0000:0AAE       USE_INCANT
 0000:0AE3       USE_WANDCAST
 0000:0B1E       CMD_USE
 0000:0B8E       CONSOLE
 0000:0BD1       LOAD
 0000:0C4D       SAVE
 0000:0CDA       SHAKEFX
 0000:0D17       XP_INC
 0000:0D3D       W_PASS
 0000:0D4B       HP_INC
 0000:0D73       HP_DEC
 0000:0D9B       SLEEP_POISONFX
 0000:0DBA       KARMA_INC
 0000:0DD9       KARMA_DEC
 0000:0E1A       C_0A58
 0000:0E4D       C_0A8B
 0000:0E73       SAFEMODULO
 0000:0E91       C_0ACF
 0000:0EC0       C_0AFE
 0000:0EFA       U4_PUTS
 0000:0FC5       U4_PUTL
 0000:1061       U4_PUTC
 0000:10B9       DSPL_STATS
 0000:11E5       DSPL_GOLD
 0000:1225       ISCHARAALIVE
 0000:1259       ISCHARACONSCIOUS
 0000:1288       DEATH_REVIVE
 0000:1514       C_10FD
 0000:154C       HITCHARA
 0000:159F       W_NO_DRAGON
 0000:15B0       W_WHAT
 0000:15C1       W_CANT_T
 0000:15D2       W_NOTHERE
 0000:15E3       W_DISABLED
 0000:15F4       W_ONLYONFOOT
 0000:1605       W_SLOWPROGRESS
 0000:1613       W_NONELEFT
 0000:1621       ASKLETTER
 0000:16CE       ASKCHARA
 0000:171D       ASKDIR
 0000:17D2       FOOD_DEC
 0000:17FD       MP_RECOVER
 0000:188C       MP_DRAIN
 0000:18C4       U4_GETS
 0000:1992       C_1513
 0000:1A08       PARTY_DAMAGE
 0000:1B16       ASKY_N
 0000:1B83       ASKINT
 0000:1BB4       _u_delay
 0000:1C58       U_RAND_A
 0000:1C89       u_rand_b
 0000:1CAC       _u_kbhit
 0000:1CDB       _u_kbread
 0000:1CEB       _u_kbflush
 0000:1CFB       C_1814
 0000:1D04       C_181D
 0000:1D16       C_182F
 0000:1D36       C_184F
 0000:1D89       C_18A2
 0000:1E05       _main
 0000:2138       PARTY_MAINT
 0000:223C       _sound
 0000:24E9       _dalloc
 0000:2518       _dfree
 0000:2528       _dopen
 0000:253E       _dlseek
 0000:255C       _dread
 0000:2580       _dwrite
 0000:25A0       _dclose
 0000:25B6       C_20C1
 0000:2630       C_213B
 0000:264F       _Gra_line
 0000:26F6       _Gra_00
 0000:26FB       _Gra_01
 0000:2700       _Gra_02
 0000:2705       _Gra_03
 0000:2710       _Gra_04
 0000:271B       _Gra_05
 0000:2720       _Gra_dot
 0000:2725       GRA_CR
 0000:2736       GRA_09
 0000:273B       GRA_10
 0000:2740       GRA_11
 0000:2761       GRA_13
 0000:2766       _Gra_dot_OR
 0000:276B       _Gra_dot_XOR
 0000:2770       _Gra_16
 0000:2775       _Gra_17
 0000:278C       _Gra_18
 0000:2791       _Gra_19
 0000:279C       _Gra_animSpit
 0000:27A1       _Gra_init
 0000:27A6       _Gra_clrscr
 0000:27AB       Gra_animFlow
 0000:27B0       Gra_animFlag
 0000:27B5       GRA_PUTCHAR
 0000:27C4       sizzleShapes
 0000:2836       sizzleCharset
 0000:288E       C_2399
 0000:2991       C_249C
 0000:2A0C       C_2517
 0000:2A94       C_259F
 0000:2B19       C_2624
 0000:2BAB       C_26B6
 0000:2C74       MAP_LEAVING
 0000:2D3A       CRYPT_EXIT
 0000:2DB9       CRYPT_CLOSE
 0000:2E54       SPAWN_DAEMONS
 0000:2E87       C_280A
 0000:2EB6       C_2839
 0000:2F0E       C_2891
 0000:2F66       C_28E9
 0000:2FBE       C_2941
 0000:3016       C_2999
 0000:3040       W_BLOCKED
 0000:305B       W_DRIFTONLY
 0000:3081       C_29EF
 0000:30CA       C_2A38
 0000:30EC       C_2A5A
 0000:3123       C_2A91
 0000:31D7       C_2B19
 0000:325F       CMDDIR_UP
 0000:335E       C_2C25
 0000:33D1       CMDDIR_DOWN
 0000:34A1       CRYPTCOLLAPSE
 0000:34FE       C_2D44
 0000:3571       CMDDIR_LEFT
 0000:362E       C_2E4F
 0000:36B2       CMDDIR_RIGHT
 0000:3781       C_2F7E
 0000:37A0       C_2F9D
 0000:3813       C_3010
 0000:3828       C_3025
 0000:3912       C_310F
 0000:39F7       C_31F4
 0000:3CED       ANI_FIELDS
 0000:3D40       C_353D
 0000:3DCA       ANI_WIND
 0000:3E08       ANI_SPRITES
 0000:3ECF       C_36C7
 0000:3F63       C_376F
 0000:40B3       ANI_RAYCAST
 0000:4158       C_3960
 0000:41AB       ANI_ICONZONE
 0000:4239       ANI_MOONGATES
 0000:4268       ANI_MOONS
 0000:4303       C_3B35
 0000:4351       C_3B83
 0000:43CA       ANI_BALLOON
 0000:4416       C_3C54
 0000:4577       T_CALLBACK
 0000:45DF       LOAD_TOWNE
 0000:4672       LOAD_TOWNE_1ST
 0000:46A3       LOAD_TOWNE_2ND
 0000:46D4       LOAD_TOWNE_SUB
 0000:4705       EXP_LOAD_DUNGEON
 0000:4765       EXP_SET_DUNGEON
 0000:4784       ENTER_DUNGEON
 0000:47ED       ENTER_TOWNE
 0000:4887       EXP_CLEAR_PARTYNPC
 0000:48CC       EXP_ENTER_ABYSS
 0000:492B       CMD_ENTER
 0000:4A87       EXP_ONFOOT
 0000:4AE0       CMD_X_IT
 0000:4B91       EXP_RESTORE_HORSE
 0000:4BB8       C_4206
 0000:4C05       CMD_BOARD
 0000:4D0A       CMD_YELL
 0000:4D3F       C_431D
 0000:4D75       CMD_OPEN
 0000:4E1A       CMD_JIMMY
 0000:4E99       CMD_KLIMB
 0000:4F4F       CMD_DESCEND
 0000:5075       C_45B5
 0000:5096       ZTATS_CENTERED
 0000:5109       C_4649
 0000:5149       C_4689
 0000:52F2       ZTATS_WEAP
 0000:540D       ZTATS_ARMOR
 0000:549C       ZTATS_EQUIP
 0000:5552       ZTATS_ITEMS
 0000:5782       ZTATS_REAGENTS
 0000:57FD       ZTATS_MIXTURES
 0000:587C       ZTATS_BROWSE
 0000:5A00       CMD_ZTATS
 0000:5A4F       C_4E94
 0000:5B79       U4_ABS
 0000:5B92       U4_SIGN
 0000:5BB3       C_4FF8
 0000:5BF1       C_5036
 0000:5C1D       C_5062
 0000:5D62       C_51A7
 0000:5E4E       NPC_MOVE_TOWN
 0000:5F16       NPC_MESM_TOWN
 0000:5F1B       C_535B
 0000:5F6F       C_53AF
 0000:6003       C_5443
 0000:60C0       C_5500
 0000:6129       C_5569
 0000:620B       C_564B
 0000:6253       C_568F
 0000:6297       C_56D3
 0000:62D6       NPC_MOVE_OUT
 0000:63FF       NPC_MESM_OUT
 0000:6404       NPC_TURN
 0000:6439       C_5851
 0000:6620       COM_GETFIGHTERID
 0000:664F       C_5A04
 0000:6673       ISCOMBATENDED
 0000:66B6       COM_MAIN
 0000:693E       C_5D14
 0000:69D5       COM_DODAMAGE
 0000:6ACC       COM_CHECKHITABLE
 0000:6B48       DRAWBLOW
 0000:6BBF       W_MISSED
 0000:6C29       TRYDAMAGE
 0000:6CFC       ATTACK_RANGED
 0000:6DDC       C_61D1
 0000:6E9A       CMD_ATTACK
 0000:6F78       C_636D
 0000:6FA4       W_FAILED
 0000:6FBF       C_63B4
 0000:7014       C_6409
 0000:7033       C_6428
 0000:7052       C_6447
 0000:7071       C_6466
 0000:7163       SPL_AWAKEN
 0000:71B5       SPL_BLINK
 0000:72A9       SPL_CURE
 0000:72E8       SPL_DISPEL
 0000:747C       SPL_ENERGY
 0000:75C8       SPL_FIREBALL
 0000:75D6       SPL_GATE
 0000:7631       SPL_HEAL
 0000:7673       SPL_ICEBALL
 0000:7681       SPL_JINX
 0000:769A       SPL_KILL
 0000:76A8       SPL_LIGHT
 0000:76CC       SPL_MAGICMISL
 0000:76DA       SPL_NEGATE
 0000:76F3       SPL_OPEN
 0000:7727       SPL_PROTECTION
 0000:7740       SPL_QUICKNESS
 0000:7759       SPL_RESURRECT
 0000:779F       SPL_SLEEP
 0000:77E9       SPL_TREMOR
 0000:7868       SPL_UNDEAD
 0000:78A9       SPL_VIEW
 0000:78BA       SPL_WINDS
 0000:7919       SPL_X_IT
 0000:7934       SPL_Y_UP
 0000:79B8       SPL_Z_DOWN
 0000:7A41       CMD_CAST
 0000:7B20       CMD_QUIT
 0000:7C0C       C_6FF9
 0000:7C47       CMD_NEWORDER
 0000:7CC0       CMD_VOLUME
 0000:7CE1       C_70CE
 0000:7D04       C_70F1
 0000:7D63       C_7150
 0000:7E4A       C_722F
 0000:7F07       CMD_GET
 0000:7F4B       C_7337
 0000:7FB8       C_73B8
 0000:7FC9       CMD_FIRE
 0000:815A       CMD_IGNITE
 0000:8193       CMD_LOCATE
 0000:8211       READY_WEAR_CANT
 0000:8266       CMD_READY
 0000:8383       CMD_WEAR
 0000:8472       C_7821
 0000:84C0       C_786F
 0000:8526       C_78D1
 0000:857D       C_7918
 0000:85B2       W_SAMEEXIT
 0000:85C7       C_7962
 0000:862E       C_79C9
 0000:867A       C_7A15
 0000:8737       C_7AE3
 0000:87D1       C_7B89
 0000:87F7       C_7BAF
 0000:881D       C_7BD5
 0000:8845       C_7BFD
 0000:886D       C_7C25
 0000:88AD       C_7C65
 0000:8998       C_7D50
 0000:89DA       C_7D92
 0000:8A04       C_7DBC
 0000:8A46       C_7DFE
 0000:8AC6       C_7E7E
 0000:8C1F       C_7FD7
 0000:8C45       C_7FFD
 0000:8EC9       C_8214
 0000:8EDD       C_8228
 0000:8F38       C_8283
 0000:903C       C_837A
 0000:9194       DNG_MAIN
 0000:93EB       C_8743
 0000:948A       C_87E2
 0000:9590       C_88E8
 0000:95C6       C_891E
 0000:9607       C_895F
 0000:9647       C_899F
 0000:9665       C_89BD
 0000:9683       C_89DB
 0000:96C7       C_8A1F
 0000:9706       AMBUSH
 0000:977E       CMD_HOLEUP
 0000:9876  Abs  __acrtmsg
 0000:9876  Abs  __acrtused
 0000:9918       CMD_MIX
 0000:9A5B       C_8D4B
 0000:9A7D       FIND_REAG
 0000:9AFB       C_MAND
 0000:9B09       C_NIGH
 0000:9B17       C_BELL
 0000:9B25       C_HORN
 0000:9B33       C_BELT
 0000:9B41       C_WHEL
 0000:9B4F       C_SKUL
 0000:9B9E       C_WAND
 0000:9BD7       C_RING
 0000:9C0E       C_ORB1
 0000:9C1C       C_ORB2
 0000:9C2A       C_ORB3
 0000:9C38       C_ORBS
 0000:9C85       C_BLAC
 0000:9CCD       C_WHIT
 0000:9CFD       C_BOOK
 0000:9D0B       C_CAND
 0000:9D19       TEST_ITEM
 0000:9D61       C_TELE
 0000:9DE1       C_MYAR
 0000:9E3C       C_MYWE
 0000:9E97       C_MBOW
 0000:9EF2       C_90C5
 0000:9F67       CMD_SEARCH
 0000:9FC7       SLEEP
 0000:9FFE       POISON
 0000:A03D       RANDOM_ENCOUNTER
 0000:A237       C_93A5
 0000:A2A6       C_9414
 0000:A43C       C_95AA
 0000:A515       C_9683
 0000:A54B       C_96B9
 0000:A5F5       C_9764
 0000:A61D       PROJ_ATTACK
 0000:A76C       C_98E4
 0000:A8B7       C_9A41
 0000:A979       CHECKJINX
 0000:A9E1       C_9B6B
 0000:AA1C       C_9BA6
 0000:AA5B       C_9BE5
 0000:AACC       C_9C56
 0000:AB32       C_9CBC
 0000:ADF1       C_9F7B
 0000:AFDB       C_A163
 0000:B0A5       C_A22D
 0000:B0BD       TLK_SPECIAL1
 0000:B0CB       TLK_SPECIAL2
 0000:B0D9       TLK_NAME
 0000:B0F8       TLK_LOOK
 0000:B111       TLK_JOB
 0000:B123       TLK_HEALTH
 0000:B135       TLK_JOIN
 0000:B21A       TLK_GIVE
 0000:B2BB       C_A443
 0000:B2F7       C_A47F
 0000:B32C       C_A4B4
 0000:B4FE       C_A686
 0000:B580       CMD_TALK
 0000:B67F       C_A7F2
 0000:B6CF       C_A842
 0000:B7D7       C_A94A
 0000:B8B6       C_AA29
 0000:B995       C_AB08
 0000:BA72       C_ABE5
 0000:BAB0       C_AC23
 0000:BBF7       C_AD6A
 0000:BC73       C_ADEF
 0000:BCC5       C_AE41
 0000:BDBA       C_AF36
 0000:BE39       C_AFB5
 0000:BF6D       C_B0E9
 0000:C0A1       C_B21D
 0000:C0E2       C_B25E
 0000:C120       C_B29C
 0000:C15E       C_B2DA
 0000:C19F       C_B31B
 0000:C1E0       C_B35C
 0000:C232       C_B3AE
 0000:C267       C_B3E3
 0000:C29C       C_B418
 0000:C2FE       C_B47A
 0000:C363       C_B4DF
 0000:C4A0       C_B61C
 0000:C4FB       C_B677
 0000:C5B4       C_B730
 0000:C5F4       C_B770
 0000:C619       C_B795
 0000:C6E7       C_B863
 0000:C7C3       C_B93F
 0000:C836       C_B9B2
 0000:C873       PER_WORLD
 0000:D0CC       PER_DUNG
 0000:D294       C_C403
 0000:D2C3       CMD_PEER
 0000:D2EB       C_C445
 0000:D2F0       C_C44A
 0000:D2F5       C_C44F
 0000:D2FA       C_C454
 0000:D301       C_C51C
 0000:D576       RESTORE_CRYPT
 0000:D5AE       SHP_HAWKWIND
 0000:D782       SHP_REAGENT
 0000:D9A0       C_CD1D
 0000:DA03       C_CD80
 0000:DB41       C_CEBE
 0000:DD62       SHP_WEAPON
 0000:DE4A       C_D16D
 0000:DEAD       C_D1D0
 0000:DFD5       C_D2F8
 0000:E18B       SHP_ARMOR
 0000:E273       SHP_HORSE
 0000:E2FB       SHP_GUILD
 0000:E485       ENC_INN
 0000:E4B3       C_D7D6
 0000:E5BA       SHP_INN
 0000:E6E2       C_DA05
 0000:E71B       C_DA3E
 0000:E756       C_DA79
 0000:E77F       C_DAA2
 0000:E806       C_DB29
 0000:E870       C_DB93
 0000:E8D2       C_DBF5
 0000:E92A       SHP_HEALER
 0000:EA01       C_DD24
 0000:EB12       C_DE35
 0000:EC8C       SHP_PUB
 0000:ED65       SHP_FOOD
 0000:EED9       C_E1FC
 0000:EEFB       C_E21E
 0000:F05B       C_E37E
 0000:F0AF       C_E3D2
 0000:F0E5       C_E408
 0000:F11F       C_E442
 0000:F175       C_E498
 0000:F1A0       C_E4C3
 0000:F278       C_E59B
 0000:F3BC       C_E6DF
 0000:F409       ENTER_SHRINE
 0000:F61E       ORB_CHECK
 0000:F644       ENTER_ORACLE
 0000:F780       SHR_KEYWORDS
 0000:F7D4       TALK_ORACLE
 0000:F85D       _atol
 0000:F860       __astart
 0000:F8FC       __cintDIV
 0000:F8FF       __amsg_exit
 0000:F90A       __cinit
 0000:F9B9       _exit
 0000:F9D0       __exit
 0000:F9FC       __ctermsub
 0000:FA24       _memcpy
 0000:FA76       _setjmp
 0000:FA93       _longjmp
 0000:FAB4       _strcat
 0000:FAE5       _strchr
 0000:FB0F       _strcpy
 0000:FB34       _strlen
 0000:FB4F       _strnicmp
 0000:FBA6       __catox
 0000:FBFB       __nullcheck
 0000:FC17       __NMSG_TEXT
 0000:FC47       __NMSG_WRITE
 0000:FC70       __setargv
 0000:FD55       __setenvp
 0000:FDBB       __myalloc
 0000:FDFD       __aNldiv
 0000:FEA0       __aNulmul
 0000:FEA0       __aNlmul
 0000:FECC       __aNlrem
 0000:FF72       __aNuldiv
 0000:FFD7       __aNulshr
 0FFF:0036       MSG_DSKERR
 0FFF:005E       MSG_SYSERR
 0FFF:0078       far_psp
 0FFF:00EE       NO_EFFECT
 0FFF:0100       NONE_OWNED
 0FFF:010E       D_010E
 0FFF:0284       D_0284
 0FFF:0678       D_0434
 0FFF:0906       cursor_rate
 0FFF:0946       _SoundFlag
 0FFF:0C66       D_07F8
 0FFF:0C68       PKARMAS
 0FFF:0C78       ACTIVECHARAX
 0FFF:0C7A       D_080C
 0FFF:0C7E       D_0810
 0FFF:0C82       D_0814
 0FFF:0C8A       D_081C
 0FFF:0C92       SECOND_FLOOR
 0FFF:0CAA       BASEMENT_FLOOR
 0FFF:0CC2       TOWNE_CASTLE_VILLAGE
 0FFF:0D1E       D_0844
 0FFF:0D4C       D_0864
 0FFF:0D7A       DUNGEONS
 0FFF:0D8A       SHRINES
 0FFF:0D9A       CRYPTS
 0FFF:0DCA       D_08CE
 0FFF:0DCC       D_08D0
 0FFF:0EA6       D_08EC
 0FFF:0EAE       D_08F4
 0FFF:0EB6       D_08FC
 0FFF:0EBE       D_0904
 0FFF:11DC       D_0BDA
 0FFF:11F2       D_0BF0
 0FFF:1200       D_0BFE
 0FFF:1C1C       D_161A
 0FFF:1C22       D_1620
 0FFF:1C32       D_1630
 0FFF:1C56       D_1654
 0FFF:1C58       D_1656
 0FFF:1C66       D_1664
 0FFF:1C68       D_1668
 0FFF:1C6A       D_166A
 0FFF:1C6C       D_166C
 0FFF:1EE4       HORSE_X
 0FFF:1EE6       HORSE_Y
 0FFF:1EE8       TALK_FILES
 0FFF:1F44       TALK_FILES_2
 0FFF:1F5C       TALK_FILES_B
 0FFF:2046       D_17FA
 0FFF:2048       D_17FC
 0FFF:204A       D_17FE
 0FFF:2214       D_199A
 0FFF:221E       D_19A4
 0FFF:223A       D_19C0
 0FFF:28F6       D_SEA_CREA
 0FFF:2908       D_CREA
 0FFF:2940       D_WEAPONS
 0FFF:2962       D_ARMORS
 0FFF:2972       D_WEA_CODES
 0FFF:2992       D_CLASSES
 0FFF:29B2       D_REAGENTS
 0FFF:29C2       D_SPELLS
 0FFF:29F6       D_LOCATIONS
 0FFF:2A52       D_VIRTUES
 0FFF:2A62       D_ASSORTED
 0FFF:2A64       D_PRINCIPLES
 0FFF:2A6A       D_INCANTATIONS
 0FFF:2A8A       D_ITEMS
 0FFF:2AA8       D_1FD8
 0FFF:2B5C       D_208C
 0FFF:2C3E       D_216E
 0FFF:2CC4       D_21F4
 0FFF:2DA0       D_22C8
 0FFF:2E0C       CLASS_MSK
 0FFF:2EAC       ENEMY_HP
 0FFF:2EE0       D_2406
 0FFF:2F04       D_242A
 0FFF:2F2A       WEAP_DAM
 0FFF:2F3C       ARMOR_PROT
 0FFF:2F44       RANGE_WEAP
 0FFF:2FEE       COMBAT_MAPS
 0FFF:304A       D_256E
 0FFF:306A       D_258E
 0FFF:311C       D_261A
 0FFF:31BA       D_LAAM
 0FFF:31C2       D_SEAM
 0FFF:329C       D_277E
 0FFF:32C4       D_27A6
 0FFF:340E       D_2904
 0FFF:342A       D_2920
 0FFF:35CA       D_2A7A
 0FFF:35E0       D_2A90
 0FFF:3702       D_2BB2
 0FFF:3824       D_2CD4
 0FFF:3964       D_2D54
 0FFF:3984       WALL_X0
 0FFF:398A       WALL_X1
 0FFF:3990       WALL_Y0
 0FFF:3996       WALL_Y1
 0FFF:399C       LDOOR_X0
 0FFF:39A0       LDOOR_X1
 0FFF:39A4       RDOOR_X0
 0FFF:39A8       RDOOR_X1
 0FFF:39AC       DOOR_Y0
 0FFF:39B0       DOOR_Y0P
 0FFF:39B4       DOOR_Y1
 0FFF:39B8       DOOR_Y1P
 0FFF:39BC       D_2DAC
 0FFF:39C0       D_2DB0
 0FFF:39C4       D_2DB4
 0FFF:39C8       D_2DB8
 0FFF:39CC       D_2DBC
 0FFF:39D0       D_2DC0
 0FFF:39D4       D_2DC4
 0FFF:39D8       D_2DC8
 0FFF:39DC       LADDER_X0
 0FFF:39E0       LADDER_X1
 0FFF:39E4       D_2DD4
 0FFF:39E8       D_2DD8
 0FFF:39EC       D_2DDC
 0FFF:39F0       D_2DE0
 0FFF:39F4       D_2DE4
 0FFF:39F8       D_2DE8
 0FFF:39FC       D_2DEC
 0FFF:39FE       D_2DEE
 0FFF:3A14       D_2E04
 0FFF:3A7E       D_2E6E
 0FFF:3A8E       D_2E7E
 0FFF:3B82       D_2F72
 0FFF:3C82       D_2FF2
 0FFF:4AD0       D_3F0C
 0FFF:4D60       D_4170
 0FFF:4D88       D_4180
 0FFF:4D94       D_4188
 0FFF:4DA0       D_4190
 0FFF:52BE       D_46A2
 0FFF:52CA       D_46AE
 0FFF:52D6       D_46BA
 0FFF:52EE       D_46D2
 0FFF:5310       D_46F2
 0FFF:5320       D_4702
 0FFF:57DA       D_4BAE
 0FFF:57E6       D_4BB8
 0FFF:57F2       D_4BC4
 0FFF:580E       D_4BDC
 0FFF:581E       D_4BEC
 0FFF:5846       D_4BFC
 0FFF:5E02       D_5196
 0FFF:5E2A       D_51A6
 0FFF:5E32       D_51AE
 0FFF:5E3A       D_51B6
 0FFF:5E40       D_51BA
 0FFF:5E46       D_51BE
 0FFF:610C       D_5484
 0FFF:611C       D_5494
 0FFF:6124       D_549C
 0FFF:612C       D_54A4
 0FFF:6134       D_54AC
 0FFF:6142       D_54BA
 0FFF:6150       D_54C8
 0FFF:62FA       D_5672
 0FFF:62FE       D_5676
 0FFF:6302       D_567A
 0FFF:642A       D_5788
 0FFF:6452       D_5798
 0FFF:6468       D_57AC
 0FFF:6BC8       D_5EE8
 0FFF:6BF0       D_5EF8
 0FFF:6BFE       D_5F04
 0FFF:6C0C       D_5F10
 0FFF:6C1A       D_5F1C
 0FFF:6C28       D_5F28
 0FFF:6C36       D_5F34
 0FFF:6C44       D_5F42
 0FFF:709C       D_636C
 0FFF:70C4       D_637C
 0FFF:70D2       D_6386
 0FFF:70E0       D_6390
 0FFF:7E5C       D_6FF0
 0FFF:7E9C       D_7028
 0FFF:996C       MANTRAS
 0FFF:997C       VISIONS
 0FFF:99AC       D_8362
 0FFF:99BC       WORDS_PASSAGE
 0FFF:99CE       KEYWORDS
 0FFF:99E0       KEYWORDS_RESPONSE
 0FFF:9DF4       __asizds
 0FFF:9DF6       __atopsp
 0FFF:9DF8       __abrktb
 0FFF:9E48       __abrktbe
 0FFF:9E48       __abrkp
 0FFF:9E56       __aintdiv
 0FFF:9E5A       __fac
 0FFF:9E62       _errno
 0FFF:9E64       __umaskval
 0FFF:9E66       __pspadr
 0FFF:9E68       __psp
 0FFF:9E6A       __osmajor
 0FFF:9E6A       __dosvermajor
 0FFF:9E6B       __osminor
 0FFF:9E6B       __dosverminor
 0FFF:9E6C       __oserr
 0FFF:9E6C       __doserrno
 0FFF:9E6E       __osfile
 0FFF:9E82       ___argc
 0FFF:9E84       ___argv
 0FFF:9E86       _environ
 0FFF:9E88       __child
 0FFF:9E8A       __csigtab
 0FFF:9E96       __fpinit
 0FFF:9F7E       _edata
 0FFF:9F80       D_9140
 0FFF:9F81       D_9141
 0FFF:9F82       D_9142
 0FFF:9F84       Party
 0FFF:A17A       D_933A
 0FFF:A27A       D_943A
 0FFF:A27C       tile_forward
 0FFF:A27E       Altar
 0FFF:A280       Tomb
 0FFF:A282       D_9440
 0FFF:A284       ship_x
 0FFF:A285       ship_y
 0FFF:A286       tile_cur
 0FFF:A287       D_9445
 0FFF:A288       D_9446
 0FFF:A28A       D_9448
 0FFF:A28C       D_944A
 0FFF:A294       D_9452
 0FFF:A296       pShapes
 0FFF:A29A       D_9458
 0FFF:A2AC       CurMode
 0FFF:A2AE       D_946C
 0FFF:A2B0       spell_cnt
 0FFF:A2B2       Combat
 0FFF:A372       Fighters
 0FFF:A3DA       File_DNG
 0FFF:A3DC       activeChara
 0FFF:A3DE       closeCrypt
 0FFF:A3E0       D_959C
 0FFF:A3E2       tile_east
 0FFF:A3E4       pCharset
 0FFF:A3E8       spell_sta
 0FFF:A3E9       D_95A5
 0FFF:A3EC       txt_X
 0FFF:A3EE       tile_north
 0FFF:A3F0       activeCharaY
 0FFF:A3F2       hit_tile
 0FFF:A3F4       hit_x
 0FFF:A3F5       hit_y
 0FFF:A3F6       D_95B2
 0FFF:A406       tile_west
 0FFF:A407       tile_south
 0FFF:A408       txt_Y
 0FFF:A40A       DoublePace
 0FFF:A40C       HorseTown
 0FFF:A40E       D_95C8
 0FFF:A410       tile_back
 0FFF:A412       D_95CC
 0FFF:A414       D_95CE
 0FFF:A534       D_96EE
 0FFF:A536       File_MAP
 0FFF:A538       WindDir
 0FFF:A53A       D_96F4
 0FFF:A53C       File_TLK
 0FFF:A53E       File_TLK_2
 0FFF:A540       File_TLK_B
 0FFF:A542       File_TLK_Buff
 0FFF:A544       D_96F8
 0FFF:A545       D_96F9
 0FFF:A5BE       D_9772
 0FFF:A5C8       speed_info
 0FFF:A5CB       equip_flags
 0FFF:A5CD       patch_tandy
 0FFF:A5D2       seed_0
 0FFF:A5D6       seed_1
 0FFF:A5DA       seed_2
 0FFF:A5DE       seed_3
 0FFF:A5E2       D_8742
 0FFF:AFE0       _end

Program entry point at 0000:F860
